target datalayout = "e-m:e-p270:32:32-p271:32:32-p272:64:64-i64:64-i128:128-f80:128-n8:16:32:64-S128"
target triple = "x86_64-pc-linux-gnu"

%struct._proto_node = type { ptr, ptr, ptr, ptr, ptr, ptr, ptr }
%struct.field_info = type { ptr, i32, i32, i32, i32, i32, i32, ptr, ptr, ptr, i32, i32 }
%struct.ieee802154_decrypt_info_t = type { ptr, i32, ptr, ptr, i32, i32, ptr }
%struct.ieee802154_key_t = type { ptr, i32, i32, [16 x i8], [16 x i8] }

@num_ieee802154_keys = internal global i32 0, align 4
@ieee802154_keys = internal global ptr null, align 8
@hf_ieee802154_key_number = internal global i32 0, align 4

; Function Attrs: inlinehint nounwind null_pointer_is_valid sspstrong uwtable
define internal void @proto_item_set_hidden(ptr noundef %0) #4 {
  %2 = alloca ptr, align 8
  store ptr %0, ptr %2, align 8
  %3 = load ptr, ptr %2, align 8
  %4 = icmp ne ptr %3, null
  br i1 %4, label %5, label %24

5:                                                ; preds = %1
  br label %6

6:                                                ; preds = %5
  %7 = load ptr, ptr %2, align 8
  %8 = getelementptr inbounds nuw %struct._proto_node, ptr %7, i32 0, i32 5
  %9 = load ptr, ptr %8, align 8
  %10 = icmp ne ptr %9, null
  br i1 %10, label %11, label %22

11:                                               ; preds = %6
  %12 = load ptr, ptr %2, align 8
  %13 = getelementptr inbounds nuw %struct._proto_node, ptr %12, i32 0, i32 5
  %14 = load ptr, ptr %13, align 8
  %15 = getelementptr inbounds nuw %struct.field_info, ptr %14, i32 0, i32 6
  %16 = load i32, ptr %15, align 4
  %17 = or i32 %16, 1
  %18 = load ptr, ptr %2, align 8
  %19 = getelementptr inbounds nuw %struct._proto_node, ptr %18, i32 0, i32 5
  %20 = load ptr, ptr %19, align 8
  %21 = getelementptr inbounds nuw %struct.field_info, ptr %20, i32 0, i32 6
  store i32 %17, ptr %21, align 4
  br label %22

22:                                               ; preds = %11, %6
  br label %23

23:                                               ; preds = %22
  br label %24

24:                                               ; preds = %23, %1
  ret void
}

; Function Attrs: null_pointer_is_valid sspstrong uwtable
define hidden ptr @decrypt_ieee802154_payload(ptr noundef %0, i32 noundef %1, ptr noundef %2, ptr noundef %3, ptr noundef %4, ptr noundef %5, ptr noundef %6, ptr noundef %7) #0 {
  %9 = alloca ptr, align 8
  %10 = alloca i32, align 4
  %11 = alloca ptr, align 8
  %12 = alloca ptr, align 8
  %13 = alloca ptr, align 8
  %14 = alloca ptr, align 8
  %15 = alloca ptr, align 8
  %16 = alloca ptr, align 8
  %17 = alloca ptr, align 8
  %18 = alloca [16 x i8], align 16
  %19 = alloca [16 x i8], align 16
  %20 = alloca ptr, align 8
  %21 = alloca i32, align 4
  %22 = alloca i32, align 4
  store ptr %0, ptr %9, align 8
  store i32 %1, ptr %10, align 4
  store ptr %2, ptr %11, align 8
  store ptr %3, ptr %12, align 8
  store ptr %4, ptr %13, align 8
  store ptr %5, ptr %14, align 8
  store ptr %6, ptr %15, align 8
  store ptr %7, ptr %16, align 8
  call void @llvm.lifetime.start.p0(i64 8, ptr %17) #17
  call void @llvm.lifetime.start.p0(i64 16, ptr %18) #17
  call void @llvm.lifetime.start.p0(i64 16, ptr %19) #17
  call void @llvm.lifetime.start.p0(i64 8, ptr %20) #17
  store ptr null, ptr %20, align 8
  %23 = load ptr, ptr %14, align 8
  %24 = getelementptr inbounds nuw %struct.ieee802154_decrypt_info_t, ptr %23, i32 0, i32 1
  store i32 0, ptr %24, align 8
  br label %25

25:                                               ; preds = %100, %8
  %26 = load ptr, ptr %14, align 8
  %27 = getelementptr inbounds nuw %struct.ieee802154_decrypt_info_t, ptr %26, i32 0, i32 1
  %28 = load i32, ptr %27, align 8
  %29 = load i32, ptr @num_ieee802154_keys, align 4
  %30 = icmp ult i32 %28, %29
  br i1 %30, label %31, label %105

31:                                               ; preds = %25
  call void @llvm.lifetime.start.p0(i64 4, ptr %21) #17
  %32 = load ptr, ptr %15, align 8
  %33 = load ptr, ptr %13, align 8
  %34 = getelementptr inbounds [16 x i8], ptr %18, i64 0, i64 0
  %35 = getelementptr inbounds [16 x i8], ptr %19, i64 0, i64 0
  %36 = load ptr, ptr @ieee802154_keys, align 8
  %37 = load ptr, ptr %14, align 8
  %38 = getelementptr inbounds nuw %struct.ieee802154_decrypt_info_t, ptr %37, i32 0, i32 1
  %39 = load i32, ptr %38, align 8
  %40 = zext i32 %39 to i64
  %41 = getelementptr %struct.ieee802154_key_t, ptr %36, i64 %40
  %42 = call i32 %32(ptr noundef %33, ptr noundef %34, ptr noundef %35, ptr noundef %41)
  store i32 %42, ptr %21, align 4
  %43 = load i32, ptr %21, align 4
  %44 = icmp uge i32 %43, 1
  br i1 %44, label %45, label %69

45:                                               ; preds = %31
  %46 = getelementptr inbounds [16 x i8], ptr %18, i64 0, i64 0
  %47 = load ptr, ptr %14, align 8
  %48 = getelementptr inbounds nuw %struct.ieee802154_decrypt_info_t, ptr %47, i32 0, i32 0
  store ptr %46, ptr %48, align 8
  %49 = load ptr, ptr %16, align 8
  %50 = load ptr, ptr %9, align 8
  %51 = load i32, ptr %10, align 4
  %52 = load ptr, ptr %11, align 8
  %53 = load ptr, ptr %13, align 8
  %54 = load ptr, ptr %14, align 8
  %55 = call ptr %49(ptr noundef %50, i32 noundef %51, ptr noundef %52, ptr noundef %53, ptr noundef %54)
  store ptr %55, ptr %20, align 8
  %56 = load ptr, ptr %14, align 8
  %57 = getelementptr inbounds nuw %struct.ieee802154_decrypt_info_t, ptr %56, i32 0, i32 6
  %58 = load ptr, ptr %57, align 8
  %59 = load i32, ptr %58, align 4
  %60 = icmp eq i32 %59, 7
  br i1 %60, label %68, label %61

61:                                               ; preds = %45
  %62 = load ptr, ptr %14, align 8
  %63 = getelementptr inbounds nuw %struct.ieee802154_decrypt_info_t, ptr %62, i32 0, i32 6
  %64 = load ptr, ptr %63, align 8
  %65 = load i32, ptr %64, align 4
  %66 = icmp eq i32 %65, 6
  br i1 %66, label %68, label %67

67:                                               ; preds = %61
  store i32 2, ptr %22, align 4
  br label %97

68:                                               ; preds = %61, %45
  br label %69

69:                                               ; preds = %68, %31
  %70 = load i32, ptr %21, align 4
  %71 = icmp uge i32 %70, 2
  br i1 %71, label %72, label %96

72:                                               ; preds = %69
  %73 = getelementptr inbounds [16 x i8], ptr %19, i64 0, i64 0
  %74 = load ptr, ptr %14, align 8
  %75 = getelementptr inbounds nuw %struct.ieee802154_decrypt_info_t, ptr %74, i32 0, i32 0
  store ptr %73, ptr %75, align 8
  %76 = load ptr, ptr %16, align 8
  %77 = load ptr, ptr %9, align 8
  %78 = load i32, ptr %10, align 4
  %79 = load ptr, ptr %11, align 8
  %80 = load ptr, ptr %13, align 8
  %81 = load ptr, ptr %14, align 8
  %82 = call ptr %76(ptr noundef %77, i32 noundef %78, ptr noundef %79, ptr noundef %80, ptr noundef %81)
  store ptr %82, ptr %20, align 8
  %83 = load ptr, ptr %14, align 8
  %84 = getelementptr inbounds nuw %struct.ieee802154_decrypt_info_t, ptr %83, i32 0, i32 6
  %85 = load ptr, ptr %84, align 8
  %86 = load i32, ptr %85, align 4
  %87 = icmp eq i32 %86, 7
  br i1 %87, label %95, label %88

88:                                               ; preds = %72
  %89 = load ptr, ptr %14, align 8
  %90 = getelementptr inbounds nuw %struct.ieee802154_decrypt_info_t, ptr %89, i32 0, i32 6
  %91 = load ptr, ptr %90, align 8
  %92 = load i32, ptr %91, align 4
  %93 = icmp eq i32 %92, 6
  br i1 %93, label %95, label %94

94:                                               ; preds = %88
  store i32 2, ptr %22, align 4
  br label %97

95:                                               ; preds = %88, %72
  br label %96

96:                                               ; preds = %95, %69
  store i32 0, ptr %22, align 4
  br label %97

97:                                               ; preds = %96, %94, %67
  call void @llvm.lifetime.end.p0(i64 4, ptr %21) #17
  %98 = load i32, ptr %22, align 4
  switch i32 %98, label %127 [
    i32 0, label %99
    i32 2, label %105
  ]

99:                                               ; preds = %97
  br label %100

100:                                              ; preds = %99
  %101 = load ptr, ptr %14, align 8
  %102 = getelementptr inbounds nuw %struct.ieee802154_decrypt_info_t, ptr %101, i32 0, i32 1
  %103 = load i32, ptr %102, align 8
  %104 = add i32 %103, 1
  store i32 %104, ptr %102, align 8
  br label %25, !llvm.loop !8

105:                                              ; preds = %97, %25
  %106 = load ptr, ptr %14, align 8
  %107 = getelementptr inbounds nuw %struct.ieee802154_decrypt_info_t, ptr %106, i32 0, i32 0
  store ptr null, ptr %107, align 8
  %108 = load ptr, ptr %14, align 8
  %109 = getelementptr inbounds nuw %struct.ieee802154_decrypt_info_t, ptr %108, i32 0, i32 1
  %110 = load i32, ptr %109, align 8
  %111 = load i32, ptr @num_ieee802154_keys, align 4
  %112 = icmp eq i32 %110, %111
  br i1 %112, label %113, label %117

113:                                              ; preds = %105
  %114 = load ptr, ptr %14, align 8
  %115 = getelementptr inbounds nuw %struct.ieee802154_decrypt_info_t, ptr %114, i32 0, i32 6
  %116 = load ptr, ptr %115, align 8
  store i32 5, ptr %116, align 4
  br label %117

117:                                              ; preds = %113, %105
  %118 = load ptr, ptr %12, align 8
  %119 = load i32, ptr @hf_ieee802154_key_number, align 4
  %120 = load ptr, ptr %9, align 8
  %121 = load ptr, ptr %14, align 8
  %122 = getelementptr inbounds nuw %struct.ieee802154_decrypt_info_t, ptr %121, i32 0, i32 1
  %123 = load i32, ptr %122, align 8
  %124 = call ptr @proto_tree_add_uint(ptr noundef %118, i32 noundef %119, ptr noundef %120, i32 noundef 0, i32 noundef 0, i32 noundef %123)
  store ptr %124, ptr %17, align 8
  %125 = load ptr, ptr %17, align 8
  call void @proto_item_set_hidden(ptr noundef %125)
  %126 = load ptr, ptr %20, align 8
  store i32 1, ptr %22, align 4
  call void @llvm.lifetime.end.p0(i64 8, ptr %20) #17
  call void @llvm.lifetime.end.p0(i64 16, ptr %19) #17
  call void @llvm.lifetime.end.p0(i64 16, ptr %18) #17
  call void @llvm.lifetime.end.p0(i64 8, ptr %17) #17
  ret ptr %126

127:                                              ; preds = %97
  unreachable
}